; Function Attrs: null_pointer_is_valid sspstrong uwtable
define hidden nonnull ptr @uat_load__scan_bytes(ptr noundef readonly captures(none) %0, i32 noundef %1, ptr noundef captures(none) %2) local_unnamed_addr #0 {
  %4 = add i32 %1, 2
  %5 = sext i32 %4 to i64
  %6 = tail call noalias ptr @malloc(i64 noundef %5) #31
  %.not = icmp eq ptr %6, null
  br i1 %.not, label %9, label %.preheader

.preheader:                                       ; preds = %3
  %7 = icmp sgt i32 %1, 0
  br i1 %7, label %.lr.ph.preheader, label %._crit_edge

.lr.ph.preheader:                                 ; preds = %.preheader
  %8 = zext nneg i32 %1 to i64
  tail call void @llvm.memcpy.p0.p0.i64(ptr nonnull align 1 %6, ptr align 1 %0, i64 %8, i1 false)
  br label %._crit_edge

9:                                                ; preds = %3
  tail call fastcc void @yy_fatal_error(ptr noundef nonnull @.str.15) #28
  unreachable

._crit_edge:                                      ; preds = %.lr.ph.preheader, %.preheader
  %10 = add i32 %1, 1
  %11 = sext i32 %10 to i64
  %12 = getelementptr i8, ptr %6, i64 %11
  store i8 0, ptr %12, align 1
  %13 = sext i32 %1 to i64
  %14 = getelementptr i8, ptr %6, i64 %13
  store i8 0, ptr %14, align 1
  %15 = tail call ptr @uat_load__scan_buffer(ptr noundef nonnull %6, i64 noundef %5, ptr noundef %2)
  %.not24 = icmp eq ptr %15, null
  br i1 %.not24, label %16, label %17

16:                                               ; preds = %._crit_edge
  tail call fastcc void @yy_fatal_error(ptr noundef nonnull @.str.16) #28
  unreachable

17:                                               ; preds = %._crit_edge
  %18 = getelementptr inbounds nuw i8, ptr %15, i64 32
  store i32 1, ptr %18, align 8
  ret ptr %15
}